; Function Attrs: mustprogress uwtable
define void @statusbar_push_temporary_msg(ptr noundef %0, ...) local_unnamed_addr #0 personality ptr @__gxx_personality_v0 {
  %2 = alloca [1 x %struct.__va_list_tag], align 16
  %3 = alloca %class.QString, align 16
  %4 = alloca %class.QString, align 16
  %5 = alloca %class.QString, align 8
  call void @llvm.memset.p0.i64(ptr noundef nonnull align 16 dereferenceable(24) %3, i8 0, i64 24, i1 false)
  %6 = load ptr, ptr @_ZL20cur_main_status_bar_, align 8
  %.not = icmp eq ptr %6, null
  br i1 %.not, label %_ZN7QStringD2Ev.exit11, label %7

7:                                                ; preds = %1
  call void @llvm.va_start(ptr nonnull %2)
  invoke void @_ZN7QString9vasprintfEPKcP13__va_list_tag(ptr dead_on_unwind nonnull writable sret(%class.QString) align 8 %4, ptr noundef %0, ptr noundef nonnull %2)
          to label %_ZN7QStringD2Ev.exit unwind label %22

_ZN7QStringD2Ev.exit:                             ; preds = %7
  %8 = getelementptr inbounds i8, ptr %4, i64 8
  %9 = load <2 x ptr>, ptr %4, align 16
  store ptr null, ptr %4, align 16
  store <2 x ptr> %9, ptr %3, align 16
  store ptr null, ptr %8, align 8
  %10 = getelementptr inbounds i8, ptr %3, i64 16
  %11 = getelementptr inbounds i8, ptr %4, i64 16
  %12 = load i64, ptr %11, align 16
  store i64 %12, ptr %10, align 16
  store i64 0, ptr %11, align 16
  call void @llvm.va_end(ptr nonnull %2)
  %13 = load ptr, ptr @mainApp, align 8
  call void @llvm.memset.p0.i64(ptr noundef nonnull align 8 dereferenceable(24) %5, i8 0, i64 24, i1 false)
  invoke void @_ZN15MainApplication10pushStatusENS_10StatusInfoERK7QStringS3_(ptr noundef nonnull align 8 dereferenceable(216) %13, i32 noundef 5, ptr noundef nonnull align 8 dereferenceable(24) %3, ptr noundef nonnull align 8 dereferenceable(24) %5)
          to label %14 unwind label %24

14:                                               ; preds = %_ZN7QStringD2Ev.exit
  %15 = load ptr, ptr %5, align 8
  %.not.i.i.i4 = icmp eq ptr %15, null
  br i1 %.not.i.i.i4, label %_ZN7QStringD2Ev.exit7, label %_ZN17QArrayDataPointerIDsE5derefEv.exit.i.i5

_ZN17QArrayDataPointerIDsE5derefEv.exit.i.i5:     ; preds = %14
  %16 = atomicrmw sub ptr %15, i32 1 seq_cst, align 4
  %.not.i.i6 = icmp eq i32 %16, 1
  br i1 %.not.i.i6, label %17, label %_ZN7QStringD2Ev.exit7

17:                                               ; preds = %_ZN17QArrayDataPointerIDsE5derefEv.exit.i.i5
  %18 = load ptr, ptr %5, align 8
  call void @_ZN10QArrayData10deallocateEPS_xx(ptr noundef %18, i64 noundef 2, i64 noundef 8) #12
  br label %_ZN7QStringD2Ev.exit7

_ZN7QStringD2Ev.exit7:                            ; preds = %17, %_ZN17QArrayDataPointerIDsE5derefEv.exit.i.i5, %14
  %.pr = load ptr, ptr %3, align 16
  %.not.i.i.i8 = icmp eq ptr %.pr, null
  br i1 %.not.i.i.i8, label %_ZN7QStringD2Ev.exit11, label %_ZN17QArrayDataPointerIDsE5derefEv.exit.i.i9

_ZN17QArrayDataPointerIDsE5derefEv.exit.i.i9:     ; preds = %_ZN7QStringD2Ev.exit7
  %19 = atomicrmw sub ptr %.pr, i32 1 seq_cst, align 4
  %.not.i.i10 = icmp eq i32 %19, 1
  br i1 %.not.i.i10, label %20, label %_ZN7QStringD2Ev.exit11

20:                                               ; preds = %_ZN17QArrayDataPointerIDsE5derefEv.exit.i.i9
  %21 = load ptr, ptr %3, align 16
  call void @_ZN10QArrayData10deallocateEPS_xx(ptr noundef %21, i64 noundef 2, i64 noundef 8) #12
  br label %_ZN7QStringD2Ev.exit11

_ZN7QStringD2Ev.exit11:                           ; preds = %1, %_ZN7QStringD2Ev.exit7, %_ZN17QArrayDataPointerIDsE5derefEv.exit.i.i9, %20
  ret void

22:                                               ; preds = %7
  %23 = landingpad { ptr, i32 }
          cleanup
  br label %_ZN7QStringD2Ev.exit15

24:                                               ; preds = %_ZN7QStringD2Ev.exit
  %25 = landingpad { ptr, i32 }
          cleanup
  %26 = load ptr, ptr %5, align 8
  %.not.i.i.i12 = icmp eq ptr %26, null
  br i1 %.not.i.i.i12, label %_ZN7QStringD2Ev.exit15, label %_ZN17QArrayDataPointerIDsE5derefEv.exit.i.i13

_ZN17QArrayDataPointerIDsE5derefEv.exit.i.i13:    ; preds = %24
  %27 = atomicrmw sub ptr %26, i32 1 seq_cst, align 4
  %.not.i.i14 = icmp eq i32 %27, 1
  br i1 %.not.i.i14, label %28, label %_ZN7QStringD2Ev.exit15

28:                                               ; preds = %_ZN17QArrayDataPointerIDsE5derefEv.exit.i.i13
  %29 = load ptr, ptr %5, align 8
  call void @_ZN10QArrayData10deallocateEPS_xx(ptr noundef %29, i64 noundef 2, i64 noundef 8) #12
  br label %_ZN7QStringD2Ev.exit15

_ZN7QStringD2Ev.exit15:                           ; preds = %28, %_ZN17QArrayDataPointerIDsE5derefEv.exit.i.i13, %24, %22
  %.pn = phi { ptr, i32 } [ %23, %22 ], [ %25, %24 ], [ %25, %_ZN17QArrayDataPointerIDsE5derefEv.exit.i.i13 ], [ %25, %28 ]
  %30 = load ptr, ptr %3, align 16
  %.not.i.i.i16 = icmp eq ptr %30, null
  br i1 %.not.i.i.i16, label %_ZN7QStringD2Ev.exit19, label %_ZN17QArrayDataPointerIDsE5derefEv.exit.i.i17

_ZN17QArrayDataPointerIDsE5derefEv.exit.i.i17:    ; preds = %_ZN7QStringD2Ev.exit15
  %31 = atomicrmw sub ptr %30, i32 1 seq_cst, align 4
  %.not.i.i18 = icmp eq i32 %31, 1
  br i1 %.not.i.i18, label %32, label %_ZN7QStringD2Ev.exit19

32:                                               ; preds = %_ZN17QArrayDataPointerIDsE5derefEv.exit.i.i17
  %33 = load ptr, ptr %3, align 16
  call void @_ZN10QArrayData10deallocateEPS_xx(ptr noundef %33, i64 noundef 2, i64 noundef 8) #12
  br label %_ZN7QStringD2Ev.exit19

_ZN7QStringD2Ev.exit19:                           ; preds = %_ZN7QStringD2Ev.exit15, %_ZN17QArrayDataPointerIDsE5derefEv.exit.i.i17, %32
  resume { ptr, i32 } %.pn
}